target datalayout = "e-m:e-p270:32:32-p271:32:32-p272:64:64-i64:64-i128:128-f80:128-n8:16:32:64-S128"
target triple = "x86_64-pc-linux-gnu"

%struct.ran_function_available_dissectors_t = type { i32, [8 x ptr] }

@g_ran_functions_available_dissectors = internal global [4 x %struct.ran_function_available_dissectors_t] zeroinitializer, align 16

; Function Attrs: nounwind null_pointer_is_valid sspstrong uwtable
define hidden void @register_e2ap_ran_function_dissector(i32 noundef %0, ptr noundef %1) #0 {
  %3 = alloca i32, align 4
  %4 = alloca ptr, align 8
  %5 = alloca ptr, align 8
  store i32 %0, ptr %3, align 4
  store ptr %1, ptr %4, align 8
  %6 = load i32, ptr %3, align 4
  %7 = icmp uge i32 %6, 0
  br i1 %7, label %8, label %30

8:                                                ; preds = %2
  %9 = load i32, ptr %3, align 4
  %10 = icmp ult i32 %9, 4
  br i1 %10, label %11, label %30

11:                                               ; preds = %8
  call void @llvm.lifetime.start.p0(i64 8, ptr %5) #10
  %12 = load i32, ptr %3, align 4
  %13 = zext i32 %12 to i64
  %14 = getelementptr [4 x %struct.ran_function_available_dissectors_t], ptr @g_ran_functions_available_dissectors, i64 0, i64 %13
  store ptr %14, ptr %5, align 8
  %15 = load ptr, ptr %5, align 8
  %16 = getelementptr inbounds nuw %struct.ran_function_available_dissectors_t, ptr %15, i32 0, i32 0
  %17 = load i32, ptr %16, align 8
  %18 = icmp ult i32 %17, 8
  br i1 %18, label %19, label %29

19:                                               ; preds = %11
  %20 = load ptr, ptr %4, align 8
  %21 = load ptr, ptr %5, align 8
  %22 = getelementptr inbounds nuw %struct.ran_function_available_dissectors_t, ptr %21, i32 0, i32 1
  %23 = load ptr, ptr %5, align 8
  %24 = getelementptr inbounds nuw %struct.ran_function_available_dissectors_t, ptr %23, i32 0, i32 0
  %25 = load i32, ptr %24, align 8
  %26 = add i32 %25, 1
  store i32 %26, ptr %24, align 8
  %27 = zext i32 %25 to i64
  %28 = getelementptr [8 x ptr], ptr %22, i64 0, i64 %27
  store ptr %20, ptr %28, align 8
  br label %29

29:                                               ; preds = %19, %11
  call void @llvm.lifetime.end.p0(i64 8, ptr %5) #10
  br label %30

30:                                               ; preds = %29, %8, %2
  ret void
}