; Function Attrs: mustprogress nofree norecurse nosync nounwind null_pointer_is_valid sspstrong willreturn memory(readwrite, argmem: none, inaccessiblemem: none) uwtable
define hidden void @register_e2ap_ran_function_dissector(i32 noundef %0, ptr noundef %1) local_unnamed_addr #0 {
  %3 = icmp ult i32 %0, 4
  br i1 %3, label %4, label %14

4:                                                ; preds = %2
  %5 = zext nneg i32 %0 to i64
  %6 = getelementptr [4 x %struct.ran_function_available_dissectors_t], ptr @g_ran_functions_available_dissectors, i64 0, i64 %5
  %7 = load i32, ptr %6, align 8
  %8 = icmp ult i32 %7, 8
  br i1 %8, label %9, label %14

9:                                                ; preds = %4
  %10 = getelementptr inbounds nuw i8, ptr %6, i64 8
  %11 = add nuw nsw i32 %7, 1
  store i32 %11, ptr %6, align 8
  %12 = zext nneg i32 %7 to i64
  %13 = getelementptr [8 x ptr], ptr %10, i64 0, i64 %12
  store ptr %1, ptr %13, align 8
  br label %14

14:                                               ; preds = %4, %9, %2
  ret void
}